(dp0
S'WA'
p1
VWashington
p2
sS'DE'
p3
VDelaware
p4
sS'DC'
p5
VDistrict of Columbia
p6
sS'WI'
p7
VWisconsin
p8
sS'WV'
p9
VWest Virginia
p10
sS'HI'
p11
VHawaii
p12
sS'FL'
p13
VFlorida
p14
sS'WY'
p15
VWyoming
p16
sS'NH'
p17
VNew Hampshire
p18
sS'NJ'
p19
VNew Jersey
p20
sS'NM'
p21
VNew Mexico
p22
sS'TX'
p23
VTexas
p24
sS'LA'
p25
VLouisiana
p26
sS'NC'
p27
VNorth Carolina
p28
sS'ND'
p29
VNorth Dakota
p30
sS'NE'
p31
VNebraska
p32
sS'TN'
p33
VTennessee
p34
sS'NY'
p35
VNew York
p36
sS'PA'
p37
VPennsylvania
p38
sS'CA'
p39
VCalifornia
p40
sS'NV'
p41
VNevada
p42
sS'VA'
p43
VVirginia
p44
sS'CO'
p45
VColorado
p46
sS'AK'
p47
VAlaska
p48
sS'AL'
p49
VAlabama
p50
sS'AR'
p51
VArkansas
p52
sS'VT'
p53
VVermont
p54
sS'IL'
p55
VIllinois
p56
sS'GA'
p57
VGeorgia
p58
sS'IN'
p59
VIndiana
p60
sS'IA'
p61
VIowa
p62
sS'OK'
p63
VOklahoma
p64
sS'AZ'
p65
VArizona
p66
sS'ID'
p67
VIdaho
p68
sS'CT'
p69
VConnecticut
p70
sS'ME'
p71
VMaine
p72
sS'MD'
p73
VMaryland
p74
sS'MA'
p75
VMassachusetts
p76
sS'OH'
p77
VOhio
p78
sS'UT'
p79
VUtah
p80
sS'MO'
p81
VMissouri
p82
sS'MN'
p83
VMinnesota
p84
sS'MI'
p85
VMichigan
p86
sS'RI'
p87
VRhode Island
p88
sS'KS'
p89
VKansas
p90
sS'MT'
p91
VMontana
p92
sS'MS'
p93
VMississippi
p94
sS'SC'
p95
VSouth Carolina
p96
sS'KY'
p97
VKentucky
p98
sS'OR'
p99
VOregon
p100
sS'SD'
p101
VSouth Dakota
p102
s.